; Function Attrs: mustprogress uwtable
define hidden void @_ZN3sat9lookahead18heule_schur_scoresEv(ptr nocapture noundef nonnull align 8 dereferenceable(1160) %this) local_unnamed_addr #3 align 2 {
entry:
  %m_rating_throttle = getelementptr inbounds i8, ptr %this, i64 952
  %0 = load i32, ptr %m_rating_throttle, align 8
  %inc = add i32 %0, 1
  store i32 %inc, ptr %m_rating_throttle, align 8
  %rem = urem i32 %0, 10
  %cmp.not = icmp eq i32 %rem, 0
  br i1 %cmp.not, label %if.end, label %for.end

if.end:                                           ; preds = %entry
  %m_freevars = getelementptr inbounds i8, ptr %this, i64 960
  %m_elems.i = getelementptr inbounds i8, ptr %this, i64 968
  %1 = load ptr, ptr %m_elems.i, align 8
  %2 = load i32, ptr %m_freevars, align 8
  %idx.ext.i = zext i32 %2 to i64
  %add.ptr.i = getelementptr inbounds i32, ptr %1, i64 %idx.ext.i
  %cmp3.not7 = icmp eq i32 %2, 0
  br i1 %cmp3.not7, label %for.end, label %for.body.lr.ph

for.body.lr.ph:                                   ; preds = %if.end
  %m_rating = getelementptr inbounds i8, ptr %this, i64 864
  br label %for.body

for.body:                                         ; preds = %for.body.lr.ph, %for.body
  %__begin1.08 = phi ptr [ %1, %for.body.lr.ph ], [ %incdec.ptr, %for.body ]
  %3 = load i32, ptr %__begin1.08, align 4
  %shl.i = shl i32 %3, 1
  %call4 = tail call noundef double @_ZN3sat9lookahead17heule_schur_scoreENS_7literalE(ptr noundef nonnull align 8 dereferenceable(1160) %this, i32 %shl.i)
  %xor.i = or disjoint i32 %shl.i, 1
  %call11 = tail call noundef double @_ZN3sat9lookahead17heule_schur_scoreENS_7literalE(ptr noundef nonnull align 8 dereferenceable(1160) %this, i32 %xor.i)
  %mul = fmul double %call4, %call11
  %shr.i = and i32 %3, 2147483647
  %4 = load ptr, ptr %m_rating, align 8
  %idxprom.i = zext nneg i32 %shr.i to i64
  %arrayidx.i = getelementptr inbounds double, ptr %4, i64 %idxprom.i
  store double %mul, ptr %arrayidx.i, align 8
  %incdec.ptr = getelementptr inbounds i8, ptr %__begin1.08, i64 4
  %cmp3.not = icmp eq ptr %incdec.ptr, %add.ptr.i
  br i1 %cmp3.not, label %for.end, label %for.body

for.end:                                          ; preds = %for.body, %if.end, %entry
  ret void
}